target datalayout = "e-m:e-p270:32:32-p271:32:32-p272:64:64-i64:64-i128:128-f80:128-n8:16:32:64-S128"
target triple = "x86_64-pc-linux-gnu"

%struct.PJconsts = type { ptr, ptr, ptr, ptr, ptr, ptr, ptr, ptr, ptr, ptr, ptr, ptr, i32, ptr, ptr, ptr, ptr, ptr, ptr, ptr, ptr, double, double, double, double, double, double, double, double, double, double, double, double, double, double, double, double, double, double, double, double, double, double, i32, i32, i32, i32, i32, i32, i32, i32, i32, i32, i32, ptr, ptr, ptr, ptr, ptr, ptr, double, double, double, double, double, double, double, double, double, double, double, i32, [7 x double], i32, ptr, ptr, double, double, i32, [4 x i8], %"class.std::shared_ptr", i8, double, i8, %"class.std::__cxx11::basic_string", %"class.std::__cxx11::basic_string", %"class.std::__cxx11::basic_string", i8, %"class.std::vector", i32, %"class.std::vector.3", i32, i8, i8, i8, ptr }
%"class.std::shared_ptr" = type { %"class.std::__shared_ptr" }
%"class.std::__shared_ptr" = type { ptr, %"class.std::__shared_count" }
%"class.std::__shared_count" = type { ptr }
%"class.std::__cxx11::basic_string" = type { %"struct.std::__cxx11::basic_string<char>::_Alloc_hider", i64, %union.anon }
%"struct.std::__cxx11::basic_string<char>::_Alloc_hider" = type { ptr }
%union.anon = type { i64, [8 x i8] }
%"class.std::vector" = type { %"struct.std::_Vector_base" }
%"struct.std::_Vector_base" = type { %"struct.std::_Vector_base<osgeo::proj::operation::GridDescription, std::allocator<osgeo::proj::operation::GridDescription>>::_Vector_impl" }
%"struct.std::_Vector_base<osgeo::proj::operation::GridDescription, std::allocator<osgeo::proj::operation::GridDescription>>::_Vector_impl" = type { %"struct.std::_Vector_base<osgeo::proj::operation::GridDescription, std::allocator<osgeo::proj::operation::GridDescription>>::_Vector_impl_data" }
%"struct.std::_Vector_base<osgeo::proj::operation::GridDescription, std::allocator<osgeo::proj::operation::GridDescription>>::_Vector_impl_data" = type { ptr, ptr, ptr }
%"class.std::vector.3" = type { %"struct.std::_Vector_base.4" }
%"struct.std::_Vector_base.4" = type { %"struct.std::_Vector_base<PJCoordOperation, std::allocator<PJCoordOperation>>::_Vector_impl" }
%"struct.std::_Vector_base<PJCoordOperation, std::allocator<PJCoordOperation>>::_Vector_impl" = type { %"struct.std::_Vector_base<PJCoordOperation, std::allocator<PJCoordOperation>>::_Vector_impl_data" }
%"struct.std::_Vector_base<PJCoordOperation, std::allocator<PJCoordOperation>>::_Vector_impl_data" = type { ptr, ptr, ptr }
%"struct.(anonymous namespace)::pj_opaque_helmert" = type { %struct.PJ_XYZ, %struct.PJ_XYZ, %struct.PJ_XYZ, %struct.PJ_XYZ, %struct.PJ_OPK, %struct.PJ_OPK, %struct.PJ_OPK, double, double, double, double, double, double, [3 x [3 x double]], double, double, i32, i32, i32, i32 }
%struct.PJ_XYZ = type { double, double, double }
%struct.PJ_OPK = type { double, double, double }
%struct.PJ_XY = type { double, double }
%struct.PJ_LP = type { double, double }
%union.PJ_COORD = type { [4 x double] }
%struct.PJ_LPZ = type { double, double, double }

; Function Attrs: mustprogress nounwind uwtable
define internal { double, double } @_ZL15helmert_reverse5PJ_XYP8PJconsts(double %0, double %1, ptr noundef %2) #3 {
  %4 = alloca %struct.PJ_LP, align 8
  %5 = alloca %struct.PJ_XY, align 8
  %6 = alloca ptr, align 8
  %7 = alloca ptr, align 8
  %8 = alloca %union.PJ_COORD, align 8
  %9 = alloca double, align 8
  %10 = alloca double, align 8
  %11 = alloca double, align 8
  %12 = alloca double, align 8
  %13 = getelementptr inbounds nuw { double, double }, ptr %5, i32 0, i32 0
  store double %0, ptr %13, align 8
  %14 = getelementptr inbounds nuw { double, double }, ptr %5, i32 0, i32 1
  store double %1, ptr %14, align 8
  store ptr %2, ptr %6, align 8, !tbaa !3
  call void @llvm.lifetime.start.p0(i64 8, ptr %7) #10
  %15 = load ptr, ptr %6, align 8, !tbaa !3
  %16 = getelementptr inbounds nuw %struct.PJconsts, ptr %15, i32 0, i32 11
  %17 = load ptr, ptr %16, align 8, !tbaa !48
  store ptr %17, ptr %7, align 8, !tbaa !49
  call void @llvm.lifetime.start.p0(i64 32, ptr %8) #10
  call void @llvm.memset.p0.i64(ptr align 8 %8, i8 0, i64 32, i1 false)
  call void @llvm.lifetime.start.p0(i64 8, ptr %9) #10
  call void @llvm.lifetime.start.p0(i64 8, ptr %10) #10
  call void @llvm.lifetime.start.p0(i64 8, ptr %11) #10
  call void @llvm.lifetime.start.p0(i64 8, ptr %12) #10
  call void @llvm.memcpy.p0.p0.i64(ptr align 8 %8, ptr align 8 %5, i64 16, i1 false), !tbaa.struct !87
  %18 = load ptr, ptr %7, align 8, !tbaa !49
  %19 = getelementptr inbounds nuw %"struct.(anonymous namespace)::pj_opaque_helmert", ptr %18, i32 0, i32 10
  %20 = load double, ptr %19, align 8, !tbaa !77
  %21 = call double @cos(double noundef %20) #10, !tbaa !88
  %22 = load ptr, ptr %7, align 8, !tbaa !49
  %23 = getelementptr inbounds nuw %"struct.(anonymous namespace)::pj_opaque_helmert", ptr %22, i32 0, i32 7
  %24 = load double, ptr %23, align 8, !tbaa !76
  %25 = fdiv double %21, %24
  store double %25, ptr %12, align 8, !tbaa !53
  %26 = load ptr, ptr %7, align 8, !tbaa !49
  %27 = getelementptr inbounds nuw %"struct.(anonymous namespace)::pj_opaque_helmert", ptr %26, i32 0, i32 10
  %28 = load double, ptr %27, align 8, !tbaa !77
  %29 = call double @sin(double noundef %28) #10, !tbaa !88
  %30 = load ptr, ptr %7, align 8, !tbaa !49
  %31 = getelementptr inbounds nuw %"struct.(anonymous namespace)::pj_opaque_helmert", ptr %30, i32 0, i32 7
  %32 = load double, ptr %31, align 8, !tbaa !76
  %33 = fdiv double %29, %32
  store double %33, ptr %11, align 8, !tbaa !53
  %34 = getelementptr inbounds nuw %struct.PJ_XY, ptr %8, i32 0, i32 0
  %35 = load double, ptr %34, align 8, !tbaa !52
  %36 = load ptr, ptr %7, align 8, !tbaa !49
  %37 = getelementptr inbounds nuw %"struct.(anonymous namespace)::pj_opaque_helmert", ptr %36, i32 0, i32 1
  %38 = getelementptr inbounds nuw %struct.PJ_XYZ, ptr %37, i32 0, i32 0
  %39 = load double, ptr %38, align 8, !tbaa !54
  %40 = fsub double %35, %39
  store double %40, ptr %9, align 8, !tbaa !53
  %41 = getelementptr inbounds nuw %struct.PJ_XY, ptr %8, i32 0, i32 1
  %42 = load double, ptr %41, align 8, !tbaa !52
  %43 = load ptr, ptr %7, align 8, !tbaa !49
  %44 = getelementptr inbounds nuw %"struct.(anonymous namespace)::pj_opaque_helmert", ptr %43, i32 0, i32 1
  %45 = getelementptr inbounds nuw %struct.PJ_XYZ, ptr %44, i32 0, i32 1
  %46 = load double, ptr %45, align 8, !tbaa !58
  %47 = fsub double %42, %46
  store double %47, ptr %10, align 8, !tbaa !53
  %48 = load double, ptr %9, align 8, !tbaa !53
  %49 = load double, ptr %12, align 8, !tbaa !53
  %50 = load double, ptr %10, align 8, !tbaa !53
  %51 = load double, ptr %11, align 8, !tbaa !53
  %52 = fmul double %50, %51
  %53 = fneg double %52
  %54 = call double @llvm.fmuladd.f64(double %48, double %49, double %53)
  %55 = getelementptr inbounds nuw %struct.PJ_XY, ptr %8, i32 0, i32 0
  store double %54, ptr %55, align 8, !tbaa !52
  %56 = load double, ptr %9, align 8, !tbaa !53
  %57 = load double, ptr %11, align 8, !tbaa !53
  %58 = load double, ptr %10, align 8, !tbaa !53
  %59 = load double, ptr %12, align 8, !tbaa !53
  %60 = fmul double %58, %59
  %61 = call double @llvm.fmuladd.f64(double %56, double %57, double %60)
  %62 = getelementptr inbounds nuw %struct.PJ_XY, ptr %8, i32 0, i32 1
  store double %61, ptr %62, align 8, !tbaa !52
  call void @llvm.memcpy.p0.p0.i64(ptr align 8 %4, ptr align 8 %8, i64 16, i1 false), !tbaa.struct !87
  call void @llvm.lifetime.end.p0(i64 8, ptr %12) #10
  call void @llvm.lifetime.end.p0(i64 8, ptr %11) #10
  call void @llvm.lifetime.end.p0(i64 8, ptr %10) #10
  call void @llvm.lifetime.end.p0(i64 8, ptr %9) #10
  call void @llvm.lifetime.end.p0(i64 32, ptr %8) #10
  call void @llvm.lifetime.end.p0(i64 8, ptr %7) #10
  %63 = load { double, double }, ptr %4, align 8
  ret { double, double } %63
}

; Function Attrs: mustprogress nounwind uwtable
define internal void @_ZL18helmert_reverse_3d6PJ_XYZP8PJconsts(ptr dead_on_unwind noalias writable sret(%struct.PJ_LPZ) align 8 %0, ptr noundef byval(%struct.PJ_XYZ) align 8 %1, ptr noundef %2) #3 {
  %4 = alloca ptr, align 8
  %5 = alloca ptr, align 8
  %6 = alloca %union.PJ_COORD, align 8
  %7 = alloca double, align 8
  %8 = alloca double, align 8
  %9 = alloca double, align 8
  %10 = alloca double, align 8
  %11 = alloca %struct.PJ_LP, align 8
  %12 = alloca %struct.PJ_XY, align 8
  %13 = alloca i32, align 4
  store ptr %2, ptr %4, align 8, !tbaa !3
  call void @llvm.lifetime.start.p0(i64 8, ptr %5) #10
  %14 = load ptr, ptr %4, align 8, !tbaa !3
  %15 = getelementptr inbounds nuw %struct.PJconsts, ptr %14, i32 0, i32 11
  %16 = load ptr, ptr %15, align 8, !tbaa !48
  store ptr %16, ptr %5, align 8, !tbaa !49
  call void @llvm.lifetime.start.p0(i64 32, ptr %6) #10
  call void @llvm.memset.p0.i64(ptr align 8 %6, i8 0, i64 32, i1 false)
  call void @llvm.lifetime.start.p0(i64 8, ptr %7) #10
  call void @llvm.lifetime.start.p0(i64 8, ptr %8) #10
  call void @llvm.lifetime.start.p0(i64 8, ptr %9) #10
  call void @llvm.lifetime.start.p0(i64 8, ptr %10) #10
  call void @llvm.memcpy.p0.p0.i64(ptr align 8 %6, ptr align 8 %1, i64 24, i1 false), !tbaa.struct !75
  %17 = load ptr, ptr %5, align 8, !tbaa !49
  %18 = getelementptr inbounds nuw %"struct.(anonymous namespace)::pj_opaque_helmert", ptr %17, i32 0, i32 18
  %19 = load i32, ptr %18, align 8, !tbaa !65
  %20 = icmp ne i32 %19, 0
  br i1 %20, label %21, label %32

21:                                               ; preds = %3
  call void @llvm.lifetime.start.p0(i64 16, ptr %11) #10
  call void @llvm.memcpy.p0.p0.i64(ptr align 8 %12, ptr align 8 %6, i64 16, i1 false), !tbaa.struct !87
  %22 = load ptr, ptr %4, align 8, !tbaa !3
  %23 = getelementptr inbounds nuw { double, double }, ptr %12, i32 0, i32 0
  %24 = load double, ptr %23, align 8
  %25 = getelementptr inbounds nuw { double, double }, ptr %12, i32 0, i32 1
  %26 = load double, ptr %25, align 8
  %27 = call { double, double } @_ZL15helmert_reverse5PJ_XYP8PJconsts(double %24, double %26, ptr noundef %22)
  %28 = getelementptr inbounds nuw { double, double }, ptr %11, i32 0, i32 0
  %29 = extractvalue { double, double } %27, 0
  store double %29, ptr %28, align 8
  %30 = getelementptr inbounds nuw { double, double }, ptr %11, i32 0, i32 1
  %31 = extractvalue { double, double } %27, 1
  store double %31, ptr %30, align 8
  call void @llvm.memcpy.p0.p0.i64(ptr align 8 %6, ptr align 8 %11, i64 16, i1 false), !tbaa.struct !87
  call void @llvm.memcpy.p0.p0.i64(ptr align 8 %0, ptr align 8 %6, i64 24, i1 false), !tbaa.struct !75
  store i32 1, ptr %13, align 4
  call void @llvm.lifetime.end.p0(i64 16, ptr %11) #10
  br label %180

32:                                               ; preds = %3
  %33 = load ptr, ptr %5, align 8, !tbaa !49
  %34 = getelementptr inbounds nuw %"struct.(anonymous namespace)::pj_opaque_helmert", ptr %33, i32 0, i32 16
  %35 = load i32, ptr %34, align 8, !tbaa !81
  %36 = icmp ne i32 %35, 0
  br i1 %36, label %37, label %67

37:                                               ; preds = %32
  %38 = load ptr, ptr %5, align 8, !tbaa !49
  %39 = getelementptr inbounds nuw %"struct.(anonymous namespace)::pj_opaque_helmert", ptr %38, i32 0, i32 7
  %40 = load double, ptr %39, align 8, !tbaa !76
  %41 = fcmp oeq double %40, 0.000000e+00
  br i1 %41, label %42, label %67

42:                                               ; preds = %37
  %43 = getelementptr inbounds nuw %struct.PJ_XYZ, ptr %1, i32 0, i32 0
  %44 = load double, ptr %43, align 8, !tbaa !99
  %45 = load ptr, ptr %5, align 8, !tbaa !49
  %46 = getelementptr inbounds nuw %"struct.(anonymous namespace)::pj_opaque_helmert", ptr %45, i32 0, i32 0
  %47 = getelementptr inbounds nuw %struct.PJ_XYZ, ptr %46, i32 0, i32 0
  %48 = load double, ptr %47, align 8, !tbaa !82
  %49 = fsub double %44, %48
  %50 = getelementptr inbounds nuw %struct.PJ_XYZ, ptr %6, i32 0, i32 0
  store double %49, ptr %50, align 8, !tbaa !52
  %51 = getelementptr inbounds nuw %struct.PJ_XYZ, ptr %1, i32 0, i32 1
  %52 = load double, ptr %51, align 8, !tbaa !100
  %53 = load ptr, ptr %5, align 8, !tbaa !49
  %54 = getelementptr inbounds nuw %"struct.(anonymous namespace)::pj_opaque_helmert", ptr %53, i32 0, i32 0
  %55 = getelementptr inbounds nuw %struct.PJ_XYZ, ptr %54, i32 0, i32 1
  %56 = load double, ptr %55, align 8, !tbaa !83
  %57 = fsub double %52, %56
  %58 = getelementptr inbounds nuw %struct.PJ_XYZ, ptr %6, i32 0, i32 1
  store double %57, ptr %58, align 8, !tbaa !52
  %59 = getelementptr inbounds nuw %struct.PJ_XYZ, ptr %1, i32 0, i32 2
  %60 = load double, ptr %59, align 8, !tbaa !101
  %61 = load ptr, ptr %5, align 8, !tbaa !49
  %62 = getelementptr inbounds nuw %"struct.(anonymous namespace)::pj_opaque_helmert", ptr %61, i32 0, i32 0
  %63 = getelementptr inbounds nuw %struct.PJ_XYZ, ptr %62, i32 0, i32 2
  %64 = load double, ptr %63, align 8, !tbaa !84
  %65 = fsub double %60, %64
  %66 = getelementptr inbounds nuw %struct.PJ_XYZ, ptr %6, i32 0, i32 2
  store double %65, ptr %66, align 8, !tbaa !52
  call void @llvm.memcpy.p0.p0.i64(ptr align 8 %0, ptr align 8 %6, i64 24, i1 false), !tbaa.struct !75
  store i32 1, ptr %13, align 4
  br label %180

67:                                               ; preds = %37, %32
  %68 = load ptr, ptr %5, align 8, !tbaa !49
  %69 = getelementptr inbounds nuw %"struct.(anonymous namespace)::pj_opaque_helmert", ptr %68, i32 0, i32 7
  %70 = load double, ptr %69, align 8, !tbaa !76
  %71 = call double @llvm.fmuladd.f64(double %70, double 0x3EB0C6F7A0B5ED8D, double 1.000000e+00)
  store double %71, ptr %10, align 8, !tbaa !53
  %72 = getelementptr inbounds nuw %struct.PJ_XYZ, ptr %1, i32 0, i32 0
  %73 = load double, ptr %72, align 8, !tbaa !99
  %74 = load ptr, ptr %5, align 8, !tbaa !49
  %75 = getelementptr inbounds nuw %"struct.(anonymous namespace)::pj_opaque_helmert", ptr %74, i32 0, i32 0
  %76 = getelementptr inbounds nuw %struct.PJ_XYZ, ptr %75, i32 0, i32 0
  %77 = load double, ptr %76, align 8, !tbaa !82
  %78 = fsub double %73, %77
  %79 = load double, ptr %10, align 8, !tbaa !53
  %80 = fdiv double %78, %79
  store double %80, ptr %7, align 8, !tbaa !53
  %81 = getelementptr inbounds nuw %struct.PJ_XYZ, ptr %1, i32 0, i32 1
  %82 = load double, ptr %81, align 8, !tbaa !100
  %83 = load ptr, ptr %5, align 8, !tbaa !49
  %84 = getelementptr inbounds nuw %"struct.(anonymous namespace)::pj_opaque_helmert", ptr %83, i32 0, i32 0
  %85 = getelementptr inbounds nuw %struct.PJ_XYZ, ptr %84, i32 0, i32 1
  %86 = load double, ptr %85, align 8, !tbaa !83
  %87 = fsub double %82, %86
  %88 = load double, ptr %10, align 8, !tbaa !53
  %89 = fdiv double %87, %88
  store double %89, ptr %8, align 8, !tbaa !53
  %90 = getelementptr inbounds nuw %struct.PJ_XYZ, ptr %1, i32 0, i32 2
  %91 = load double, ptr %90, align 8, !tbaa !101
  %92 = load ptr, ptr %5, align 8, !tbaa !49
  %93 = getelementptr inbounds nuw %"struct.(anonymous namespace)::pj_opaque_helmert", ptr %92, i32 0, i32 0
  %94 = getelementptr inbounds nuw %struct.PJ_XYZ, ptr %93, i32 0, i32 2
  %95 = load double, ptr %94, align 8, !tbaa !84
  %96 = fsub double %91, %95
  %97 = load double, ptr %10, align 8, !tbaa !53
  %98 = fdiv double %96, %97
  store double %98, ptr %9, align 8, !tbaa !53
  %99 = load ptr, ptr %5, align 8, !tbaa !49
  %100 = getelementptr inbounds nuw %"struct.(anonymous namespace)::pj_opaque_helmert", ptr %99, i32 0, i32 13
  %101 = getelementptr inbounds [3 x [3 x double]], ptr %100, i64 0, i64 0
  %102 = getelementptr inbounds [3 x double], ptr %101, i64 0, i64 0
  %103 = load double, ptr %102, align 8, !tbaa !53
  %104 = load double, ptr %7, align 8, !tbaa !53
  %105 = load ptr, ptr %5, align 8, !tbaa !49
  %106 = getelementptr inbounds nuw %"struct.(anonymous namespace)::pj_opaque_helmert", ptr %105, i32 0, i32 13
  %107 = getelementptr inbounds [3 x [3 x double]], ptr %106, i64 0, i64 1
  %108 = getelementptr inbounds [3 x double], ptr %107, i64 0, i64 0
  %109 = load double, ptr %108, align 8, !tbaa !53
  %110 = load double, ptr %8, align 8, !tbaa !53
  %111 = fmul double %109, %110
  %112 = call double @llvm.fmuladd.f64(double %103, double %104, double %111)
  %113 = load ptr, ptr %5, align 8, !tbaa !49
  %114 = getelementptr inbounds nuw %"struct.(anonymous namespace)::pj_opaque_helmert", ptr %113, i32 0, i32 13
  %115 = getelementptr inbounds [3 x [3 x double]], ptr %114, i64 0, i64 2
  %116 = getelementptr inbounds [3 x double], ptr %115, i64 0, i64 0
  %117 = load double, ptr %116, align 8, !tbaa !53
  %118 = load double, ptr %9, align 8, !tbaa !53
  %119 = call double @llvm.fmuladd.f64(double %117, double %118, double %112)
  %120 = load ptr, ptr %5, align 8, !tbaa !49
  %121 = getelementptr inbounds nuw %"struct.(anonymous namespace)::pj_opaque_helmert", ptr %120, i32 0, i32 3
  %122 = getelementptr inbounds nuw %struct.PJ_XYZ, ptr %121, i32 0, i32 0
  %123 = load double, ptr %122, align 8, !tbaa !96
  %124 = fadd double %119, %123
  %125 = getelementptr inbounds nuw %struct.PJ_XYZ, ptr %6, i32 0, i32 0
  store double %124, ptr %125, align 8, !tbaa !52
  %126 = load ptr, ptr %5, align 8, !tbaa !49
  %127 = getelementptr inbounds nuw %"struct.(anonymous namespace)::pj_opaque_helmert", ptr %126, i32 0, i32 13
  %128 = getelementptr inbounds [3 x [3 x double]], ptr %127, i64 0, i64 0
  %129 = getelementptr inbounds [3 x double], ptr %128, i64 0, i64 1
  %130 = load double, ptr %129, align 8, !tbaa !53
  %131 = load double, ptr %7, align 8, !tbaa !53
  %132 = load ptr, ptr %5, align 8, !tbaa !49
  %133 = getelementptr inbounds nuw %"struct.(anonymous namespace)::pj_opaque_helmert", ptr %132, i32 0, i32 13
  %134 = getelementptr inbounds [3 x [3 x double]], ptr %133, i64 0, i64 1
  %135 = getelementptr inbounds [3 x double], ptr %134, i64 0, i64 1
  %136 = load double, ptr %135, align 8, !tbaa !53
  %137 = load double, ptr %8, align 8, !tbaa !53
  %138 = fmul double %136, %137
  %139 = call double @llvm.fmuladd.f64(double %130, double %131, double %138)
  %140 = load ptr, ptr %5, align 8, !tbaa !49
  %141 = getelementptr inbounds nuw %"struct.(anonymous namespace)::pj_opaque_helmert", ptr %140, i32 0, i32 13
  %142 = getelementptr inbounds [3 x [3 x double]], ptr %141, i64 0, i64 2
  %143 = getelementptr inbounds [3 x double], ptr %142, i64 0, i64 1
  %144 = load double, ptr %143, align 8, !tbaa !53
  %145 = load double, ptr %9, align 8, !tbaa !53
  %146 = call double @llvm.fmuladd.f64(double %144, double %145, double %139)
  %147 = load ptr, ptr %5, align 8, !tbaa !49
  %148 = getelementptr inbounds nuw %"struct.(anonymous namespace)::pj_opaque_helmert", ptr %147, i32 0, i32 3
  %149 = getelementptr inbounds nuw %struct.PJ_XYZ, ptr %148, i32 0, i32 1
  %150 = load double, ptr %149, align 8, !tbaa !97
  %151 = fadd double %146, %150
  %152 = getelementptr inbounds nuw %struct.PJ_XYZ, ptr %6, i32 0, i32 1
  store double %151, ptr %152, align 8, !tbaa !52
  %153 = load ptr, ptr %5, align 8, !tbaa !49
  %154 = getelementptr inbounds nuw %"struct.(anonymous namespace)::pj_opaque_helmert", ptr %153, i32 0, i32 13
  %155 = getelementptr inbounds [3 x [3 x double]], ptr %154, i64 0, i64 0
  %156 = getelementptr inbounds [3 x double], ptr %155, i64 0, i64 2
  %157 = load double, ptr %156, align 8, !tbaa !53
  %158 = load double, ptr %7, align 8, !tbaa !53
  %159 = load ptr, ptr %5, align 8, !tbaa !49
  %160 = getelementptr inbounds nuw %"struct.(anonymous namespace)::pj_opaque_helmert", ptr %159, i32 0, i32 13
  %161 = getelementptr inbounds [3 x [3 x double]], ptr %160, i64 0, i64 1
  %162 = getelementptr inbounds [3 x double], ptr %161, i64 0, i64 2
  %163 = load double, ptr %162, align 8, !tbaa !53
  %164 = load double, ptr %8, align 8, !tbaa !53
  %165 = fmul double %163, %164
  %166 = call double @llvm.fmuladd.f64(double %157, double %158, double %165)
  %167 = load ptr, ptr %5, align 8, !tbaa !49
  %168 = getelementptr inbounds nuw %"struct.(anonymous namespace)::pj_opaque_helmert", ptr %167, i32 0, i32 13
  %169 = getelementptr inbounds [3 x [3 x double]], ptr %168, i64 0, i64 2
  %170 = getelementptr inbounds [3 x double], ptr %169, i64 0, i64 2
  %171 = load double, ptr %170, align 8, !tbaa !53
  %172 = load double, ptr %9, align 8, !tbaa !53
  %173 = call double @llvm.fmuladd.f64(double %171, double %172, double %166)
  %174 = load ptr, ptr %5, align 8, !tbaa !49
  %175 = getelementptr inbounds nuw %"struct.(anonymous namespace)::pj_opaque_helmert", ptr %174, i32 0, i32 3
  %176 = getelementptr inbounds nuw %struct.PJ_XYZ, ptr %175, i32 0, i32 2
  %177 = load double, ptr %176, align 8, !tbaa !98
  %178 = fadd double %173, %177
  %179 = getelementptr inbounds nuw %struct.PJ_XYZ, ptr %6, i32 0, i32 2
  store double %178, ptr %179, align 8, !tbaa !52
  call void @llvm.memcpy.p0.p0.i64(ptr align 8 %0, ptr align 8 %6, i64 24, i1 false), !tbaa.struct !75
  store i32 1, ptr %13, align 4
  br label %180

180:                                              ; preds = %67, %42, %21
  call void @llvm.lifetime.end.p0(i64 8, ptr %10) #10
  call void @llvm.lifetime.end.p0(i64 8, ptr %9) #10
  call void @llvm.lifetime.end.p0(i64 8, ptr %8) #10
  call void @llvm.lifetime.end.p0(i64 8, ptr %7) #10
  call void @llvm.lifetime.end.p0(i64 32, ptr %6) #10
  call void @llvm.lifetime.end.p0(i64 8, ptr %5) #10
  ret void
}