; Function Attrs: mustprogress nofree nounwind willreturn memory(readwrite, inaccessiblemem: write) uwtable
define internal void @_ZL18helmert_reverse_3d6PJ_XYZP8PJconsts(ptr dead_on_unwind noalias writable writeonly sret(%struct.PJ_LPZ) align 8 captures(none) initializes((0, 24)) %0, ptr noundef readonly byval(%struct.PJ_XYZ) align 8 captures(none) %1, ptr noundef readonly captures(none) %2) #3 {
  %4 = getelementptr inbounds nuw i8, ptr %2, i64 88
  %5 = load ptr, ptr %4, align 8, !tbaa !47
  %.sroa.013.0.copyload = load double, ptr %1, align 8, !tbaa !49
  %.sroa.11.0..sroa_idx = getelementptr inbounds nuw i8, ptr %1, i64 8
  %.sroa.11.0.copyload = load double, ptr %.sroa.11.0..sroa_idx, align 8, !tbaa !49
  %.sroa.15.0..sroa_idx = getelementptr inbounds nuw i8, ptr %1, i64 16
  %.sroa.15.0.copyload = load double, ptr %.sroa.15.0..sroa_idx, align 8, !tbaa !49
  %6 = getelementptr inbounds nuw i8, ptr %5, i64 312
  %7 = load i32, ptr %6, align 8, !tbaa !61
  %.not = icmp eq i32 %7, 0
  %.phi.trans.insert = getelementptr inbounds nuw i8, ptr %5, i64 168
  br i1 %.not, label %27, label %8

8:                                                ; preds = %3
  %9 = getelementptr inbounds nuw i8, ptr %5, i64 192
  %10 = load double, ptr %9, align 8, !tbaa !73
  %11 = tail call double @cos(double noundef %10) #10, !tbaa !83
  %12 = load double, ptr %.phi.trans.insert, align 8, !tbaa !72
  %13 = fdiv double %11, %12
  %14 = tail call double @sin(double noundef %10) #10, !tbaa !83
  %15 = fdiv double %14, %12
  %16 = getelementptr inbounds nuw i8, ptr %5, i64 24
  %17 = load double, ptr %16, align 8, !tbaa !50
  %18 = fsub double %.sroa.013.0.copyload, %17
  %19 = getelementptr inbounds nuw i8, ptr %5, i64 32
  %20 = load double, ptr %19, align 8, !tbaa !54
  %21 = fsub double %.sroa.11.0.copyload, %20
  %22 = fneg double %15
  %23 = fmul double %21, %22
  %24 = tail call double @llvm.fmuladd.f64(double %18, double %13, double %23)
  %25 = fmul double %13, %21
  %26 = tail call double @llvm.fmuladd.f64(double %18, double %15, double %25)
  br label %88

27:                                               ; preds = %3
  %28 = getelementptr inbounds nuw i8, ptr %5, i64 304
  %29 = load i32, ptr %28, align 8, !tbaa !77
  %.not53 = icmp ne i32 %29, 0
  %.pre = load double, ptr %.phi.trans.insert, align 8, !tbaa !72
  %30 = fcmp oeq double %.pre, 0.000000e+00
  %or.cond = select i1 %.not53, i1 %30, i1 false
  br i1 %or.cond, label %31, label %._crit_edge

31:                                               ; preds = %27
  %32 = load double, ptr %5, align 8, !tbaa !78
  %33 = fsub double %.sroa.013.0.copyload, %32
  %34 = getelementptr inbounds nuw i8, ptr %5, i64 8
  %35 = load double, ptr %34, align 8, !tbaa !79
  %36 = fsub double %.sroa.11.0.copyload, %35
  %37 = getelementptr inbounds nuw i8, ptr %5, i64 16
  %38 = load double, ptr %37, align 8, !tbaa !80
  %39 = fsub double %.sroa.15.0.copyload, %38
  br label %88

._crit_edge:                                      ; preds = %27
  %40 = tail call double @llvm.fmuladd.f64(double %.pre, double 0x3EB0C6F7A0B5ED8D, double 1.000000e+00)
  %41 = load double, ptr %5, align 8, !tbaa !78
  %42 = fsub double %.sroa.013.0.copyload, %41
  %43 = fdiv double %42, %40
  %44 = getelementptr inbounds nuw i8, ptr %5, i64 8
  %45 = load double, ptr %44, align 8, !tbaa !79
  %46 = fsub double %.sroa.11.0.copyload, %45
  %47 = fdiv double %46, %40
  %48 = getelementptr inbounds nuw i8, ptr %5, i64 16
  %49 = load double, ptr %48, align 8, !tbaa !80
  %50 = fsub double %.sroa.15.0.copyload, %49
  %51 = fdiv double %50, %40
  %52 = getelementptr inbounds nuw i8, ptr %5, i64 216
  %53 = load double, ptr %52, align 8, !tbaa !49
  %54 = getelementptr inbounds nuw i8, ptr %5, i64 240
  %55 = load double, ptr %54, align 8, !tbaa !49
  %56 = fmul double %47, %55
  %57 = tail call double @llvm.fmuladd.f64(double %53, double %43, double %56)
  %58 = getelementptr inbounds nuw i8, ptr %5, i64 264
  %59 = load double, ptr %58, align 8, !tbaa !49
  %60 = tail call double @llvm.fmuladd.f64(double %59, double %51, double %57)
  %61 = getelementptr inbounds nuw i8, ptr %5, i64 72
  %62 = load double, ptr %61, align 8, !tbaa !86
  %63 = fadd double %62, %60
  %64 = getelementptr inbounds nuw i8, ptr %5, i64 224
  %65 = load double, ptr %64, align 8, !tbaa !49
  %66 = getelementptr inbounds nuw i8, ptr %5, i64 248
  %67 = load double, ptr %66, align 8, !tbaa !49
  %68 = fmul double %47, %67
  %69 = tail call double @llvm.fmuladd.f64(double %65, double %43, double %68)
  %70 = getelementptr inbounds nuw i8, ptr %5, i64 272
  %71 = load double, ptr %70, align 8, !tbaa !49
  %72 = tail call double @llvm.fmuladd.f64(double %71, double %51, double %69)
  %73 = getelementptr inbounds nuw i8, ptr %5, i64 80
  %74 = load double, ptr %73, align 8, !tbaa !87
  %75 = fadd double %74, %72
  %76 = getelementptr inbounds nuw i8, ptr %5, i64 232
  %77 = load double, ptr %76, align 8, !tbaa !49
  %78 = getelementptr inbounds nuw i8, ptr %5, i64 256
  %79 = load double, ptr %78, align 8, !tbaa !49
  %80 = fmul double %47, %79
  %81 = tail call double @llvm.fmuladd.f64(double %77, double %43, double %80)
  %82 = getelementptr inbounds nuw i8, ptr %5, i64 280
  %83 = load double, ptr %82, align 8, !tbaa !49
  %84 = tail call double @llvm.fmuladd.f64(double %83, double %51, double %81)
  %85 = getelementptr inbounds nuw i8, ptr %5, i64 88
  %86 = load double, ptr %85, align 8, !tbaa !88
  %87 = fadd double %86, %84
  br label %88

88:                                               ; preds = %._crit_edge, %31, %8
  %.sink55 = phi double [ %63, %._crit_edge ], [ %33, %31 ], [ %24, %8 ]
  %.sink54 = phi double [ %75, %._crit_edge ], [ %36, %31 ], [ %26, %8 ]
  %.sink = phi double [ %87, %._crit_edge ], [ %39, %31 ], [ %.sroa.15.0.copyload, %8 ]
  store double %.sink55, ptr %0, align 8, !tbaa !49
  %.sroa.11.0..sroa_idx21 = getelementptr inbounds nuw i8, ptr %0, i64 8
  store double %.sink54, ptr %.sroa.11.0..sroa_idx21, align 8, !tbaa !49
  %.sroa.15.0..sroa_idx27 = getelementptr inbounds nuw i8, ptr %0, i64 16
  store double %.sink, ptr %.sroa.15.0..sroa_idx27, align 8, !tbaa !49
  ret void
}